Certificate:
    Data:
        Version: 3 (0x2)
        Serial Number:
            56:06:13:6a:a3:99:79:f2:46:44:f0:17:72:e2:ab:65
        Signature Algorithm: sha256WithRSAEncryption
        Issuer: CN=AWASLab4096
        Validity
            Not Before: Dec  6 03:13:50 2022 GMT
            Not After : Mar 10 03:13:50 2025 GMT
        Subject: CN=pc
        Subject Public Key Info:
            Public Key Algorithm: rsaEncryption
                RSA Public-Key: (4096 bit)
                Modulus:
                    00:cf:a1:3f:50:c1:31:50:8a:86:0b:60:cf:d5:f1:
                    fc:c4:a9:ed:a6:0b:0c:a0:95:34:5c:19:5a:0f:e8:
                    48:a7:f2:ab:42:fe:04:31:e8:b8:4e:17:81:48:19:
                    9b:a3:3c:d3:4d:27:1e:7a:95:ff:69:55:04:d8:5d:
                    bf:76:d5:13:f0:0f:45:9a:2e:f2:e0:72:f2:ca:26:
                    c3:68:6d:f2:29:aa:39:eb:e1:c1:dd:0c:4f:10:57:
                    b8:30:25:75:03:dd:19:b0:91:2e:27:0d:15:17:26:
                    39:48:fc:e3:2e:97:8d:56:ac:9c:e8:bd:3d:48:b2:
                    ea:dc:0e:eb:fe:42:77:57:9f:97:c6:4b:19:65:f9:
                    7e:e5:51:04:f6:fe:43:3c:44:80:b3:6c:42:e0:d1:
                    17:ba:fe:d0:3c:68:9d:86:bf:94:73:dc:81:c7:d1:
                    20:82:92:43:ff:6e:37:42:e4:b1:f5:19:f8:51:6a:
                    34:a4:32:44:53:27:7e:36:dc:60:de:52:67:27:5a:
                    d7:14:23:6d:9b:cb:80:ba:78:87:60:79:df:d9:0e:
                    63:6a:b9:d5:96:57:93:d8:18:b1:82:cc:5b:ba:5e:
                    d3:bc:f2:17:82:57:22:62:a5:8c:66:57:b5:3b:a4:
                    e5:78:c8:36:ce:a9:f7:f6:ba:39:ff:dc:58:e5:fc:
                    19:2f:2b:b5:ea:11:c0:39:c9:80:64:3c:ac:54:8f:
                    be:f7:10:7b:1c:1c:89:4d:8e:12:f8:3d:18:0f:96:
                    e0:96:75:83:3b:6f:f7:f0:2d:53:9d:d9:99:a9:13:
                    47:44:da:04:c0:60:35:90:af:1b:3c:77:77:3b:52:
                    06:3d:58:b8:05:93:a4:5a:4f:f5:66:73:d9:3f:aa:
                    16:3d:45:68:d4:10:94:1b:3f:32:7e:cd:43:ed:27:
                    ea:d7:1a:da:83:72:79:71:79:3f:24:4e:ad:50:bf:
                    fb:43:16:2a:29:f8:02:8e:43:97:5f:ac:96:be:6c:
                    c8:7a:85:ab:33:cd:0d:cf:06:80:a8:32:2b:ee:99:
                    94:97:42:fd:44:73:2a:5b:52:fb:b1:69:06:b5:8c:
                    ed:3f:85:d4:d4:17:77:4e:7c:56:38:28:44:96:bd:
                    37:79:13:0f:ed:03:26:7b:1c:29:81:02:59:33:6f:
                    bc:91:33:58:00:90:92:a4:30:21:d3:24:c8:71:0a:
                    de:2e:f2:a4:a4:83:8a:4c:25:9a:5b:ae:84:43:e3:
                    d3:5c:2f:77:1e:59:be:98:ac:9d:f2:f7:f7:b3:46:
                    1a:6c:e4:73:b7:9c:e4:64:1f:c3:b9:6c:9c:c7:43:
                    58:6f:c6:60:1b:20:4a:1a:58:90:12:96:42:aa:61:
                    ab:50:d9
                Exponent: 65537 (0x10001)
        X509v3 extensions:
            X509v3 Basic Constraints: 
                CA:FALSE
            X509v3 Subject Key Identifier: 
                03:15:77:02:E2:0D:E2:DA:13:B5:55:CC:9A:C4:95:98:83:99:27:46
            X509v3 Authority Key Identifier: 
                keyid:12:F2:61:84:7D:14:41:02:71:28:E5:28:80:3B:78:2D:F5:4E:E4:4D
                DirName:/CN=AWASLab4096
                serial:48:D1:26:D7:BF:54:B5:1C:81:2A:2A:B9:92:2E:47:2D:E8:EE:F6:BD

            X509v3 Extended Key Usage: 
                TLS Web Client Authentication
            X509v3 Key Usage: 
                Digital Signature
    Signature Algorithm: sha256WithRSAEncryption
         8f:c5:03:07:bc:1f:84:a7:38:6a:58:13:f8:fc:4f:90:a4:5d:
         4f:bb:66:c0:5d:e3:78:7f:f5:1a:d4:2e:69:f9:ad:d3:00:fb:
         7e:4a:1c:e3:e2:d7:e6:23:be:ee:de:16:29:fb:58:c4:a0:15:
         df:c7:17:81:6e:53:ab:99:42:06:27:57:65:a4:d5:a0:b7:58:
         da:fa:4f:23:44:ad:da:21:f8:6b:66:08:39:f6:45:99:98:a3:
         3a:14:91:73:eb:d3:1c:4e:55:b2:f7:86:7a:ff:5f:95:2d:4d:
         12:b7:8f:c4:87:89:be:02:98:96:77:cd:cc:ad:44:f2:3d:a9:
         66:42:50:df:8c:5c:f5:65:9c:f8:f1:cb:32:bb:04:b6:3b:ba:
         0f:83:58:67:5e:de:74:10:92:c5:23:96:4a:d4:2c:64:c3:a0:
         c3:dd:43:70:7a:b3:24:d9:32:3b:0b:37:c3:53:50:bd:45:7f:
         3b:5c:13:32:e2:c6:bc:f6:5b:28:62:12:b0:b2:72:a5:50:d2:
         0a:25:f5:2a:8c:d0:cf:10:9a:75:b9:a2:2f:03:58:54:2a:b1:
         dc:31:bd:66:8b:db:2f:32:dc:51:bc:27:3b:2f:87:17:45:83:
         68:df:be:f6:78:91:ed:91:cb:b6:e7:e1:a6:a8:52:67:82:74:
         f0:c2:ac:d5:d9:cc:0b:98:1b:06:e2:2b:42:00:64:9d:7b:1e:
         79:08:34:09:e6:2d:d3:a6:85:97:4f:f2:2c:39:3c:3f:5e:f2:
         66:de:0c:6f:47:de:3a:f0:18:5d:89:3c:ec:38:e6:82:ac:5e:
         22:2f:6f:ee:c1:87:87:09:64:65:b1:4d:2e:eb:6f:e5:c7:f0:
         65:ca:fe:68:ed:67:97:4a:58:01:54:85:10:f4:e8:29:cd:b7:
         b7:2c:b4:40:a3:1a:42:09:58:64:95:72:6b:ab:a7:38:b5:92:
         e3:11:cd:89:f4:e4:7f:8c:59:10:61:e9:50:3a:ee:c2:66:aa:
         6d:98:ce:92:aa:6a:a2:a7:be:cd:ea:b6:61:30:2f:5e:89:41:
         53:35:dd:02:83:96:f3:0b:e7:b6:52:04:9c:42:49:19:6b:26:
         76:3a:ba:87:a8:18:bf:4f:1d:9e:cb:db:93:46:30:1f:40:38:
         46:97:22:2f:41:f4:ca:4a:a6:ca:34:07:8b:e3:79:b8:c7:c7:
         13:c2:df:17:4a:a1:33:ce:12:a0:e7:3d:cf:50:ca:ea:82:e1:
         22:08:0b:14:c2:c8:19:6e:30:99:38:51:7a:25:a7:c3:f3:9c:
         c7:af:2d:6a:82:d8:13:d9:1b:92:ff:19:7a:60:eb:f9:63:70:
         01:6a:18:30:14:e0:16:7a
-----BEGIN CERTIFICATE-----
MIIFUDCCAzigAwIBAgIQVgYTaqOZefJGRPAXcuKrZTANBgkqhkiG9w0BAQsFADAW
MRQwEgYDVQQDDAtBV0FTTGFiNDA5NjAeFw0yMjEyMDYwMzEzNTBaFw0yNTAzMTAw
MzEzNTBaMA0xCzAJBgNVBAMMAnBjMIICIjANBgkqhkiG9w0BAQEFAAOCAg8AMIIC
CgKCAgEAz6E/UMExUIqGC2DP1fH8xKntpgsMoJU0XBlaD+hIp/KrQv4EMei4TheB
SBmbozzTTSceepX/aVUE2F2/dtUT8A9Fmi7y4HLyyibDaG3yKao56+HB3QxPEFe4
MCV1A90ZsJEuJw0VFyY5SPzjLpeNVqyc6L09SLLq3A7r/kJ3V5+XxksZZfl+5VEE
9v5DPESAs2xC4NEXuv7QPGidhr+Uc9yBx9EggpJD/243QuSx9Rn4UWo0pDJEUyd+
Ntxg3lJnJ1rXFCNtm8uAuniHYHnf2Q5jarnVlleT2Bixgsxbul7TvPIXglciYqWM
Zle1O6TleMg2zqn39ro5/9xY5fwZLyu16hHAOcmAZDysVI++9xB7HByJTY4S+D0Y
D5bglnWDO2/38C1TndmZqRNHRNoEwGA1kK8bPHd3O1IGPVi4BZOkWk/1ZnPZP6oW
PUVo1BCUGz8yfs1D7Sfq1xrag3J5cXk/JE6tUL/7QxYqKfgCjkOXX6yWvmzIeoWr
M80NzwaAqDIr7pmUl0L9RHMqW1L7sWkGtYztP4XU1Bd3TnxWOChElr03eRMP7QMm
exwpgQJZM2+8kTNYAJCSpDAh0yTIcQreLvKkpIOKTCWaW66EQ+PTXC93Hlm+mKyd
8vf3s0YabORzt5zkZB/DuWycx0NYb8ZgGyBKGliQEpZCqmGrUNkCAwEAAaOBojCB
nzAJBgNVHRMEAjAAMB0GA1UdDgQWBBQDFXcC4g3i2hO1VcyaxJWYg5knRjBRBgNV
HSMESjBIgBQS8mGEfRRBAnEo5SiAO3gt9U7kTaEapBgwFjEUMBIGA1UEAwwLQVdB
U0xhYjQwOTaCFEjRJte/VLUcgSoquZIuRy3o7va9MBMGA1UdJQQMMAoGCCsGAQUF
BwMCMAsGA1UdDwQEAwIHgDANBgkqhkiG9w0BAQsFAAOCAgEAj8UDB7wfhKc4algT
+PxPkKRdT7tmwF3jeH/1GtQuafmt0wD7fkoc4+LX5iO+7t4WKftYxKAV38cXgW5T
q5lCBidXZaTVoLdY2vpPI0St2iH4a2YIOfZFmZijOhSRc+vTHE5VsveGev9flS1N
ErePxIeJvgKYlnfNzK1E8j2pZkJQ34xc9WWc+PHLMrsEtju6D4NYZ17edBCSxSOW
StQsZMOgw91DcHqzJNkyOws3w1NQvUV/O1wTMuLGvPZbKGISsLJypVDSCiX1KozQ
zxCadbmiLwNYVCqx3DG9ZovbLzLcUbwnOy+HF0WDaN++9niR7ZHLtufhpqhSZ4J0
8MKs1dnMC5gbBuIrQgBknXseeQg0CeYt06aFl0/yLDk8P17yZt4Mb0feOvAYXYk8
7DjmgqxeIi9v7sGHhwlkZbFNLutv5cfwZcr+aO1nl0pYAVSFEPToKc23tyy0QKMa
QglYZJVya6unOLWS4xHNifTkf4xZEGHpUDruwmaqbZjOkqpqoqe+zeq2YTAvXolB
UzXdAoOW8wvntlIEnEJJGWsmdjq6h6gYv08dnsvbk0YwH0A4RpciL0H0ykqmyjQH
i+N5uMfHE8LfF0qhM84SoOc9z1DK6oLhIggLFMLIGW4wmThReiWnw/Ocx68taoLY
E9kbkv8ZemDr+WNwAWoYMBTgFno=
-----END CERTIFICATE-----
